; Function Attrs: nounwind sspstrong uwtable
define dso_local range(i64 37, 36) i64 @rb_obj_remove_instance_variable(i64 noundef %0, i64 noundef %1) local_unnamed_addr #0 {
  %3 = alloca i64, align 8
  store i64 %1, ptr %3, align 8, !tbaa !14
  %4 = call i64 @rb_check_id(ptr noundef nonnull %3) #27
  %5 = load i64, ptr %3, align 8, !tbaa !14
  %.not.i = icmp eq i64 %4, 0
  br i1 %.not.i, label %8, label %6

6:                                                ; preds = %2
  %7 = call i32 @rb_is_instance_id(i64 noundef %4) #27, !callees !123
  %.not12.i = icmp eq i32 %7, 0
  br i1 %.not12.i, label %10, label %check_id_type.exit

8:                                                ; preds = %2
  %9 = call i32 @rb_is_instance_name(i64 noundef %5) #27, !callees !124
  %.not11.i = icmp eq i32 %9, 0
  br i1 %.not11.i, label %10, label %check_id_type.exit

10:                                               ; preds = %8, %6
  %11 = call i64 @rb_fstring_new(ptr noundef nonnull @.str.19, i64 noundef 50) #27
  call fastcc void @rb_name_err_raise_str(i64 noundef %11, i64 noundef %0, i64 noundef %5) #36
  unreachable

check_id_type.exit:                               ; preds = %6, %8
  %12 = icmp eq i64 %0, 0
  %13 = and i64 %0, 7
  %14 = icmp ne i64 %13, 0
  %15 = or i1 %12, %14
  br i1 %15, label %RB_OBJ_FROZEN.exit.thread.i, label %RB_FL_ABLE.exit.i.i, !prof !100

RB_FL_ABLE.exit.i.i:                              ; preds = %check_id_type.exit
  %16 = inttoptr i64 %0 to ptr
  %17 = load i64, ptr %16, align 8, !tbaa !28
  %18 = and i64 %17, 31
  %.not.i.i = icmp eq i64 %18, 27
  %19 = and i64 %17, 2048
  %20 = icmp ne i64 %19, 0
  %or.cond.i = or i1 %.not.i.i, %20
  br i1 %or.cond.i, label %RB_OBJ_FROZEN.exit.thread.i, label %rbimpl_RB_TYPE_P_fastpath.exit.i, !prof !101

RB_OBJ_FROZEN.exit.thread.i:                      ; preds = %RB_FL_ABLE.exit.i.i, %check_id_type.exit
  call void @rb_error_frozen_object(i64 noundef %0) #28
  unreachable

rbimpl_RB_TYPE_P_fastpath.exit.i:                 ; preds = %RB_FL_ABLE.exit.i.i
  %21 = icmp ne i64 %18, 5
  %22 = and i64 %17, 49152
  %.not.i12 = icmp eq i64 %22, 0
  %or.cond8.i = or i1 %21, %.not.i12
  br i1 %or.cond8.i, label %rb_check_frozen_inline.exit, label %23, !prof !102

23:                                               ; preds = %rbimpl_RB_TYPE_P_fastpath.exit.i
  call void @rb_str_modify(i64 noundef %0) #27
  br label %rb_check_frozen_inline.exit

rb_check_frozen_inline.exit:                      ; preds = %rbimpl_RB_TYPE_P_fastpath.exit.i, %23
  br i1 %.not.i, label %27, label %24

24:                                               ; preds = %rb_check_frozen_inline.exit
  %25 = call fastcc i64 @rb_ivar_delete(i64 noundef %0, i64 noundef %4, i64 noundef 36)
  %26 = icmp eq i64 %25, 36
  br i1 %26, label %27, label %29

27:                                               ; preds = %24, %rb_check_frozen_inline.exit
  %28 = load i64, ptr %3, align 8, !tbaa !14
  call fastcc void @rb_name_err_raise(ptr noundef nonnull @.str.20, i64 noundef %0, i64 noundef %28) #36
  unreachable

29:                                               ; preds = %24
  ret i64 %25
}